target datalayout = "e-m:e-p270:32:32-p271:32:32-p272:64:64-i64:64-f80:128-n8:16:32:64-S128"
target triple = "x86_64-pc-linux-gnu"

@.str = private unnamed_addr constant [3 x i8] c"%d\00", align 1
@.str.1 = private unnamed_addr constant [6 x i8] c"%s %d\00", align 1
@.str.2 = private unnamed_addr constant [4 x i8] c"%s\0A\00", align 1

; Function Attrs: noinline nounwind uwtable
define dso_local i32 @main() #0 {
  %1 = alloca i32, align 4
  %2 = alloca i32, align 4
  %3 = alloca i32, align 4
  %4 = alloca i32, align 4
  %5 = alloca i8**, align 8
  %6 = alloca i32, align 4
  %7 = alloca i32*, align 8
  %8 = alloca i8**, align 8
  %9 = alloca i32*, align 8
  %10 = alloca i32, align 4
  %11 = alloca i8*, align 8
  store i32 0, i32* %1, align 4
  store i32 0, i32* %4, align 4
  %12 = call i32 (i8*, ...) @__isoc99_scanf(i8* getelementptr inbounds ([3 x i8], [3 x i8]* @.str, i64 0, i64 0), i32* %2)
  %13 = load i32, i32* %2, align 4
  %14 = sext i32 %13 to i64
  %15 = mul i64 8, %14
  %16 = call noalias i8* @malloc(i64 %15) #3
  %17 = bitcast i8* %16 to i8**
  store i8** %17, i8*** %5, align 8
  store i32 0, i32* %3, align 4
  br label %18

18:                                               ; preds = %28, %0
  %19 = load i32, i32* %3, align 4
  %20 = load i32, i32* %2, align 4
  %21 = icmp slt i32 %19, %20
  br i1 %21, label %22, label %31

22:                                               ; preds = %18
  %23 = call noalias i8* @malloc(i64 10) #3
  %24 = load i8**, i8*** %5, align 8
  %25 = load i32, i32* %3, align 4
  %26 = sext i32 %25 to i64
  %27 = getelementptr inbounds i8*, i8** %24, i64 %26
  store i8* %23, i8** %27, align 8
  br label %28

28:                                               ; preds = %22
  %29 = load i32, i32* %3, align 4
  %30 = add nsw i32 %29, 1
  store i32 %30, i32* %3, align 4
  br label %18

31:                                               ; preds = %18
  store i32 0, i32* %6, align 4
  %32 = load i32, i32* %2, align 4
  %33 = sext i32 %32 to i64
  %34 = mul i64 4, %33
  %35 = call noalias i8* @malloc(i64 %34) #3
  %36 = bitcast i8* %35 to i32*
  store i32* %36, i32** %7, align 8
  store i32 0, i32* %3, align 4
  br label %37

37:                                               ; preds = %62, %31
  %38 = load i32, i32* %3, align 4
  %39 = load i32, i32* %2, align 4
  %40 = icmp slt i32 %38, %39
  br i1 %40, label %41, label %65

41:                                               ; preds = %37
  %42 = load i8**, i8*** %5, align 8
  %43 = load i32, i32* %3, align 4
  %44 = sext i32 %43 to i64
  %45 = getelementptr inbounds i8*, i8** %42, i64 %44
  %46 = load i8*, i8** %45, align 8
  %47 = load i32*, i32** %7, align 8
  %48 = load i32, i32* %3, align 4
  %49 = sext i32 %48 to i64
  %50 = getelementptr inbounds i32, i32* %47, i64 %49
  %51 = call i32 (i8*, ...) @__isoc99_scanf(i8* getelementptr inbounds ([6 x i8], [6 x i8]* @.str.1, i64 0, i64 0), i8* %46, i32* %50)
  %52 = load i32*, i32** %7, align 8
  %53 = load i32, i32* %3, align 4
  %54 = sext i32 %53 to i64
  %55 = getelementptr inbounds i32, i32* %52, i64 %54
  %56 = load i32, i32* %55, align 4
  %57 = icmp sge i32 %56, 60
  br i1 %57, label %58, label %61

58:                                               ; preds = %41
  %59 = load i32, i32* %6, align 4
  %60 = add nsw i32 %59, 1
  store i32 %60, i32* %6, align 4
  br label %61

61:                                               ; preds = %58, %41
  br label %62

62:                                               ; preds = %61
  %63 = load i32, i32* %3, align 4
  %64 = add nsw i32 %63, 1
  store i32 %64, i32* %3, align 4
  br label %37

65:                                               ; preds = %37
  %66 = load i32, i32* %6, align 4
  %67 = sext i32 %66 to i64
  %68 = mul i64 8, %67
  %69 = call noalias i8* @malloc(i64 %68) #3
  %70 = bitcast i8* %69 to i8**
  store i8** %70, i8*** %8, align 8
  store i32 0, i32* %3, align 4
  br label %71

71:                                               ; preds = %81, %65
  %72 = load i32, i32* %3, align 4
  %73 = load i32, i32* %2, align 4
  %74 = icmp slt i32 %72, %73
  br i1 %74, label %75, label %84

75:                                               ; preds = %71
  %76 = call noalias i8* @malloc(i64 10) #3
  %77 = load i8**, i8*** %8, align 8
  %78 = load i32, i32* %3, align 4
  %79 = sext i32 %78 to i64
  %80 = getelementptr inbounds i8*, i8** %77, i64 %79
  store i8* %76, i8** %80, align 8
  br label %81

81:                                               ; preds = %75
  %82 = load i32, i32* %3, align 4
  %83 = add nsw i32 %82, 1
  store i32 %83, i32* %3, align 4
  br label %71

84:                                               ; preds = %71
  %85 = load i32, i32* %6, align 4
  %86 = sext i32 %85 to i64
  %87 = mul i64 4, %86
  %88 = call noalias i8* @malloc(i64 %87) #3
  %89 = bitcast i8* %88 to i32*
  store i32* %89, i32** %9, align 8
  store i32 0, i32* %3, align 4
  br label %90

90:                                               ; preds = %123, %84
  %91 = load i32, i32* %3, align 4
  %92 = load i32, i32* %2, align 4
  %93 = icmp slt i32 %91, %92
  br i1 %93, label %94, label %126

94:                                               ; preds = %90
  %95 = load i32*, i32** %7, align 8
  %96 = load i32, i32* %3, align 4
  %97 = sext i32 %96 to i64
  %98 = getelementptr inbounds i32, i32* %95, i64 %97
  %99 = load i32, i32* %98, align 4
  %100 = icmp sge i32 %99, 60
  br i1 %100, label %101, label %122

101:                                              ; preds = %94
  %102 = load i8**, i8*** %5, align 8
  %103 = load i32, i32* %3, align 4
  %104 = sext i32 %103 to i64
  %105 = getelementptr inbounds i8*, i8** %102, i64 %104
  %106 = load i8*, i8** %105, align 8
  %107 = load i8**, i8*** %8, align 8
  %108 = load i32, i32* %4, align 4
  %109 = sext i32 %108 to i64
  %110 = getelementptr inbounds i8*, i8** %107, i64 %109
  store i8* %106, i8** %110, align 8
  %111 = load i32*, i32** %7, align 8
  %112 = load i32, i32* %3, align 4
  %113 = sext i32 %112 to i64
  %114 = getelementptr inbounds i32, i32* %111, i64 %113
  %115 = load i32, i32* %114, align 4
  %116 = load i32*, i32** %9, align 8
  %117 = load i32, i32* %4, align 4
  %118 = sext i32 %117 to i64
  %119 = getelementptr inbounds i32, i32* %116, i64 %118
  store i32 %115, i32* %119, align 4
  %120 = load i32, i32* %4, align 4
  %121 = add nsw i32 %120, 1
  store i32 %121, i32* %4, align 4
  br label %122

122:                                              ; preds = %101, %94
  br label %123

123:                                              ; preds = %122
  %124 = load i32, i32* %3, align 4
  %125 = add nsw i32 %124, 1
  store i32 %125, i32* %3, align 4
  br label %90

126:                                              ; preds = %90
  %127 = call noalias i8* @malloc(i64 10) #3
  store i8* %127, i8** %11, align 8
  store i32 1, i32* %3, align 4
  br label %128

128:                                              ; preds = %200, %126
  %129 = load i32, i32* %3, align 4
  %130 = load i32, i32* %6, align 4
  %131 = icmp sle i32 %129, %130
  br i1 %131, label %132, label %203

132:                                              ; preds = %128
  store i32 0, i32* %4, align 4
  br label %133

133:                                              ; preds = %196, %132
  %134 = load i32, i32* %4, align 4
  %135 = load i32, i32* %6, align 4
  %136 = load i32, i32* %3, align 4
  %137 = sub nsw i32 %135, %136
  %138 = icmp slt i32 %134, %137
  br i1 %138, label %139, label %199

139:                                              ; preds = %133
  %140 = load i32*, i32** %9, align 8
  %141 = load i32, i32* %4, align 4
  %142 = add nsw i32 %141, 1
  %143 = sext i32 %142 to i64
  %144 = getelementptr inbounds i32, i32* %140, i64 %143
  %145 = load i32, i32* %144, align 4
  %146 = load i32*, i32** %9, align 8
  %147 = load i32, i32* %4, align 4
  %148 = sext i32 %147 to i64
  %149 = getelementptr inbounds i32, i32* %146, i64 %148
  %150 = load i32, i32* %149, align 4
  %151 = icmp sgt i32 %145, %150
  br i1 %151, label %152, label %195

152:                                              ; preds = %139
  %153 = load i8**, i8*** %8, align 8
  %154 = load i32, i32* %4, align 4
  %155 = sext i32 %154 to i64
  %156 = getelementptr inbounds i8*, i8** %153, i64 %155
  %157 = load i8*, i8** %156, align 8
  store i8* %157, i8** %11, align 8
  %158 = load i8**, i8*** %8, align 8
  %159 = load i32, i32* %4, align 4
  %160 = add nsw i32 %159, 1
  %161 = sext i32 %160 to i64
  %162 = getelementptr inbounds i8*, i8** %158, i64 %161
  %163 = load i8*, i8** %162, align 8
  %164 = load i8**, i8*** %8, align 8
  %165 = load i32, i32* %4, align 4
  %166 = sext i32 %165 to i64
  %167 = getelementptr inbounds i8*, i8** %164, i64 %166
  store i8* %163, i8** %167, align 8
  %168 = load i8*, i8** %11, align 8
  %169 = load i8**, i8*** %8, align 8
  %170 = load i32, i32* %4, align 4
  %171 = add nsw i32 %170, 1
  %172 = sext i32 %171 to i64
  %173 = getelementptr inbounds i8*, i8** %169, i64 %172
  store i8* %168, i8** %173, align 8
  %174 = load i32*, i32** %9, align 8
  %175 = load i32, i32* %4, align 4
  %176 = sext i32 %175 to i64
  %177 = getelementptr inbounds i32, i32* %174, i64 %176
  %178 = load i32, i32* %177, align 4
  store i32 %178, i32* %10, align 4
  %179 = load i32*, i32** %9, align 8
  %180 = load i32, i32* %4, align 4
  %181 = add nsw i32 %180, 1
  %182 = sext i32 %181 to i64
  %183 = getelementptr inbounds i32, i32* %179, i64 %182
  %184 = load i32, i32* %183, align 4
  %185 = load i32*, i32** %9, align 8
  %186 = load i32, i32* %4, align 4
  %187 = sext i32 %186 to i64
  %188 = getelementptr inbounds i32, i32* %185, i64 %187
  store i32 %184, i32* %188, align 4
  %189 = load i32, i32* %10, align 4
  %190 = load i32*, i32** %9, align 8
  %191 = load i32, i32* %4, align 4
  %192 = add nsw i32 %191, 1
  %193 = sext i32 %192 to i64
  %194 = getelementptr inbounds i32, i32* %190, i64 %193
  store i32 %189, i32* %194, align 4
  br label %195

195:                                              ; preds = %152, %139
  br label %196

196:                                              ; preds = %195
  %197 = load i32, i32* %4, align 4
  %198 = add nsw i32 %197, 1
  store i32 %198, i32* %4, align 4
  br label %133

199:                                              ; preds = %133
  br label %200

200:                                              ; preds = %199
  %201 = load i32, i32* %3, align 4
  %202 = add nsw i32 %201, 1
  store i32 %202, i32* %3, align 4
  br label %128

203:                                              ; preds = %128
  store i32 0, i32* %3, align 4
  br label %204

204:                                              ; preds = %215, %203
  %205 = load i32, i32* %3, align 4
  %206 = load i32, i32* %6, align 4
  %207 = icmp slt i32 %205, %206
  br i1 %207, label %208, label %218

208:                                              ; preds = %204
  %209 = load i8**, i8*** %8, align 8
  %210 = load i32, i32* %3, align 4
  %211 = sext i32 %210 to i64
  %212 = getelementptr inbounds i8*, i8** %209, i64 %211
  %213 = load i8*, i8** %212, align 8
  %214 = call i32 (i8*, ...) @printf(i8* getelementptr inbounds ([4 x i8], [4 x i8]* @.str.2, i64 0, i64 0), i8* %213)
  br label %215

215:                                              ; preds = %208
  %216 = load i32, i32* %3, align 4
  %217 = add nsw i32 %216, 1
  store i32 %217, i32* %3, align 4
  br label %204

218:                                              ; preds = %204
  store i32 0, i32* %3, align 4
  br label %219

219:                                              ; preds = %238, %218
  %220 = load i32, i32* %3, align 4
  %221 = load i32, i32* %2, align 4
  %222 = icmp slt i32 %220, %221
  br i1 %222, label %223, label %241

223:                                              ; preds = %219
  %224 = load i32*, i32** %7, align 8
  %225 = load i32, i32* %3, align 4
  %226 = sext i32 %225 to i64
  %227 = getelementptr inbounds i32, i32* %224, i64 %226
  %228 = load i32, i32* %227, align 4
  %229 = icmp slt i32 %228, 60
  br i1 %229, label %230, label %237

230:                                              ; preds = %223
  %231 = load i8**, i8*** %5, align 8
  %232 = load i32, i32* %3, align 4
  %233 = sext i32 %232 to i64
  %234 = getelementptr inbounds i8*, i8** %231, i64 %233
  %235 = load i8*, i8** %234, align 8
  %236 = call i32 (i8*, ...) @printf(i8* getelementptr inbounds ([4 x i8], [4 x i8]* @.str.2, i64 0, i64 0), i8* %235)
  br label %237

237:                                              ; preds = %230, %223
  br label %238

238:                                              ; preds = %237
  %239 = load i32, i32* %3, align 4
  %240 = add nsw i32 %239, 1
  store i32 %240, i32* %3, align 4
  br label %219

241:                                              ; preds = %219
  ret i32 0
}